; Function Attrs: mustprogress nounwind uwtable
define hidden void @_ZN12ZStatWorkers8at_startEj(ptr noundef nonnull align 8 dereferenceable(96) %0, i32 noundef %1) local_unnamed_addr #0 align 2 {
_ZN7ZLockerI5ZLockED2Ev.exit:
  %2 = tail call i32 @pthread_mutex_lock(ptr noundef nonnull %0) #20
  %3 = tail call { i64, i64 } @_ZN29CompositeElapsedCounterSource3nowEv() #20
  %4 = extractvalue { i64, i64 } %3, 0
  %5 = extractvalue { i64, i64 } %3, 1
  %6 = getelementptr inbounds i8, ptr %0, i64 48
  store i64 %4, ptr %6, align 8
  %.sroa.2.0..sroa_idx = getelementptr inbounds i8, ptr %0, i64 56
  store i64 %5, ptr %.sroa.2.0..sroa_idx, align 8
  %7 = getelementptr inbounds i8, ptr %0, i64 40
  store i32 %1, ptr %7, align 8
  %8 = tail call i32 @pthread_mutex_unlock(ptr noundef nonnull %0) #20
  ret void
}